; Function Attrs: mustprogress uwtable
define noundef double @_ZNK8LightGBM4GBDT18GetUpperBoundValueEv(ptr noundef nonnull readonly align 8 captures(none) dereferenceable(648) %0) unnamed_addr #1 align 2 {
  %2 = getelementptr inbounds nuw i8, ptr %0, i64 224
  %3 = load ptr, ptr %2, align 8, !tbaa !232
  %4 = getelementptr inbounds nuw i8, ptr %0, i64 232
  %5 = load ptr, ptr %4, align 8, !tbaa !232
  %.not9 = icmp eq ptr %3, %5
  br i1 %.not9, label %._crit_edge, label %.lr.ph

._crit_edge:                                      ; preds = %.lr.ph, %1
  %.0.lcssa = phi double [ 0.000000e+00, %1 ], [ %8, %.lr.ph ]
  ret double %.0.lcssa

.lr.ph:                                           ; preds = %1, %.lr.ph
  %.011 = phi double [ %8, %.lr.ph ], [ 0.000000e+00, %1 ]
  %.sroa.06.010 = phi ptr [ %9, %.lr.ph ], [ %3, %1 ]
  %6 = load ptr, ptr %.sroa.06.010, align 8, !tbaa !234
  %7 = tail call noundef double @_ZNK8LightGBM4Tree18GetUpperBoundValueEv(ptr noundef nonnull align 8 dereferenceable(648) %6)
  %8 = fadd double %.011, %7
  %9 = getelementptr inbounds nuw i8, ptr %.sroa.06.010, i64 8
  %.not = icmp eq ptr %9, %5
  br i1 %.not, label %._crit_edge, label %.lr.ph
}